; Function Attrs: mustprogress uwtable
define void @_ZN3net11CryptoUtils13GenerateNonceENS_12QuicWallTimeEPNS_10QuicRandomEN4base16BasicStringPieceINSt7__cxx1112basic_stringIcSt11char_traitsIcESaIcEEEEEPSB_(i64 %0, ptr noundef %1, ptr readonly captures(none) %2, i64 %3, ptr noundef nonnull %4) local_unnamed_addr #0 align 2 {
  %6 = alloca %"class.net::QuicWallTime", align 8
  store i64 %0, ptr %6, align 8
  tail call void @_ZNSt7__cxx1112basic_stringIcSt11char_traitsIcESaIcEE7reserveEm(ptr noundef nonnull align 8 dereferenceable(32) %4, i64 noundef 32)
  tail call void @_ZNSt7__cxx1112basic_stringIcSt11char_traitsIcESaIcEE6resizeEmc(ptr noundef nonnull align 8 dereferenceable(32) %4, i64 noundef 32, i8 noundef signext 0)
  %7 = call noundef i64 @_ZNK3net12QuicWallTime13ToUNIXSecondsEv(ptr noundef nonnull align 8 dereferenceable(8) %6)
  %8 = lshr i64 %7, 24
  %9 = trunc i64 %8 to i8
  %10 = load ptr, ptr %4, align 8, !tbaa !3
  store i8 %9, ptr %10, align 1, !tbaa !11
  %11 = lshr i64 %7, 16
  %12 = trunc i64 %11 to i8
  %13 = load ptr, ptr %4, align 8, !tbaa !3
  %14 = getelementptr inbounds nuw i8, ptr %13, i64 1
  store i8 %12, ptr %14, align 1, !tbaa !11
  %15 = lshr i64 %7, 8
  %16 = trunc i64 %15 to i8
  %17 = load ptr, ptr %4, align 8, !tbaa !3
  %18 = getelementptr inbounds nuw i8, ptr %17, i64 2
  store i8 %16, ptr %18, align 1, !tbaa !11
  %19 = trunc i64 %7 to i8
  %20 = load ptr, ptr %4, align 8, !tbaa !3
  %21 = getelementptr inbounds nuw i8, ptr %20, i64 3
  store i8 %19, ptr %21, align 1, !tbaa !11
  %22 = icmp eq i64 %3, 8
  br i1 %22, label %23, label %27

23:                                               ; preds = %5
  %24 = load ptr, ptr %4, align 8, !tbaa !3
  %25 = getelementptr inbounds nuw i8, ptr %24, i64 4
  %26 = load i64, ptr %2, align 1
  store i64 %26, ptr %25, align 1
  br label %27

27:                                               ; preds = %23, %5
  %.0 = phi i64 [ 12, %23 ], [ 4, %5 ]
  %28 = load ptr, ptr %4, align 8, !tbaa !3
  %29 = getelementptr inbounds nuw i8, ptr %28, i64 %.0
  %30 = sub nuw nsw i64 32, %.0
  %31 = load ptr, ptr %1, align 8, !tbaa !12
  %32 = getelementptr inbounds nuw i8, ptr %31, i64 16
  %33 = load ptr, ptr %32, align 8
  call void %33(ptr noundef nonnull align 8 dereferenceable(8) %1, ptr noundef nonnull %29, i64 noundef %30)
  ret void
}